Certificate:
    Data:
        Version: 3 (0x2)
        Serial Number: 14 (0xe)
    Signature Algorithm: sha1WithRSAEncryption
        Issuer: C=GB, ST=Staffordshire, L=Wolverhampton, O=Intrbiz Ltd, CN=Intrbiz Root CA
        Validity
            Not Before: Nov 30 20:10:33 2014 GMT
            Not After : Nov 30 20:10:33 2015 GMT
        Subject: C=GB, ST=Staffordshire, O=Intrbiz Ltd, OU=Bergamot, CN=hub.bergamot.local
        Subject Public Key Info:
            Public Key Algorithm: rsaEncryption
                Public-Key: (2048 bit)
                Modulus:
                    00:b7:81:01:2e:50:2c:d6:84:a5:d9:2f:ef:02:42:
                    db:24:52:22:ac:73:c3:e7:0b:c9:b1:2f:67:84:01:
                    f2:a6:4e:01:85:d7:11:f7:2d:9c:52:d1:e6:76:0b:
                    47:c5:e7:fa:25:b6:93:69:1b:ff:df:d6:61:eb:e9:
                    e2:d0:f2:6b:47:f0:f1:3a:df:fd:cd:bd:a6:8c:02:
                    9e:be:1b:bd:d2:94:f9:9a:d5:46:04:3b:57:a3:4c:
                    b7:24:cd:2c:20:ea:a5:9f:a1:47:3b:ad:11:0b:78:
                    b1:f6:b6:73:16:d8:04:2a:c1:40:fe:cc:91:1b:98:
                    5c:7f:5a:f0:ee:25:44:a9:f1:97:f2:73:82:5d:67:
                    d3:38:cf:c4:57:91:c9:c2:d9:ea:d6:ac:b3:83:0f:
                    92:da:ea:a3:a9:a3:df:b7:25:93:91:07:06:77:d2:
                    63:43:6e:44:21:8b:69:d0:e8:e8:fd:57:b7:45:1f:
                    b9:ba:60:f0:bc:a3:0f:54:73:59:a6:ad:00:24:fe:
                    af:aa:dd:d2:df:09:38:d2:11:a0:49:9b:d4:95:21:
                    c7:f7:6f:4f:bb:81:f9:c6:23:3d:fe:b3:2c:ca:1b:
                    be:82:6d:76:ab:28:25:b3:9b:d5:73:f7:bc:25:ef:
                    6b:b2:8f:cc:50:10:33:4c:cb:96:1c:5f:83:3a:ea:
                    bd:91
                Exponent: 65537 (0x10001)
        X509v3 extensions:
            X509v3 Basic Constraints: 
                CA:FALSE
            Netscape Comment: 
                OpenSSL Generated Certificate
            X509v3 Subject Key Identifier: 
                70:D9:B3:7A:79:E7:E9:56:2C:69:7A:58:A3:04:82:B8:8C:4E:32:BB
            X509v3 Authority Key Identifier: 
                keyid:AA:B3:23:B3:0B:57:CF:FF:75:33:93:C7:9F:AA:98:78:55:04:A6:A2

    Signature Algorithm: sha1WithRSAEncryption
         28:bb:b9:d3:dd:f0:f4:db:af:da:32:d1:ca:ea:00:fb:ca:81:
         1a:04:91:dc:9a:50:ba:47:70:11:d1:e7:22:3e:d0:ab:51:59:
         85:b2:db:7e:68:00:47:30:8d:bb:70:2a:f8:b7:94:fe:01:0f:
         c4:ed:84:6b:22:28:5b:15:3c:f3:80:6c:51:1b:0d:f5:68:64:
         74:7d:d2:82:e1:47:cd:ce:21:f4:0d:70:83:11:1e:96:8d:c3:
         fd:e0:8d:03:55:9c:6b:92:1f:3f:06:f7:69:3d:91:5d:b1:ad:
         d1:96:84:3d:c5:32:6d:92:50:71:9b:29:83:41:5f:b8:00:46:
         f5:28:8c:de:ca:83:5d:15:78:55:29:fe:b9:8e:28:00:29:0d:
         39:60:8a:1d:16:86:4e:47:54:3c:2d:36:c0:02:0b:97:c6:37:
         bf:a4:51:4d:ed:f3:9a:fc:4b:f1:51:f1:6a:a3:62:55:26:f3:
         a9:87:2b:0a:83:38:65:80:33:48:3a:d0:a5:39:5f:d5:e8:58:
         4c:16:71:ee:1a:ee:8a:d0:f0:82:42:3e:f1:4f:81:9e:32:32:
         a9:8a:5a:32:39:9e:3c:c7:66:fe:19:c9:ca:d1:8e:14:3f:87:
         a7:73:62:cb:51:e6:d4:45:78:38:cc:8d:f6:6f:93:5e:64:f1:
         18:8e:64:b4:0d:93:69:d6:f2:27:48:63:1c:87:46:d4:bc:94:
         a5:66:8f:a9:1f:dd:5f:22:5b:93:68:c0:bb:1e:aa:79:13:6f:
         38:e7:f6:cd:1a:8a:14:07:71:a5:19:79:5a:1d:bd:3b:83:76:
         bb:c3:d2:43:47:cd:51:74:dd:58:3f:ce:d2:69:89:01:35:56:
         29:ec:05:7b:d0:17:0c:e6:67:1e:b8:83:15:3d:ba:97:71:5a:
         80:79:e6:d8:48:79:c0:94:f0:c9:71:6e:d8:7b:16:67:58:b9:
         2a:96:ce:a6:49:8f:0a:ae:86:86:6c:f8:5f:04:e7:b9:67:aa:
         3d:39:37:05:ae:91:90:e6:c7:a8:aa:82:01:ab:ba:3a:49:19:
         62:3b:7b:e9:49:da:76:d7:19:ec:dc:7d:7c:0d:d1:ea:85:af:
         fd:81:13:15:d7:04:b6:81:1e:6d:5f:2e:30:b9:f4:3a:d8:ed:
         ec:97:d7:69:98:2d:8d:01:80:87:80:ad:2b:0c:65:83:97:ef:
         3d:18:b9:cd:26:1d:3a:5a:1d:f8:00:34:86:f9:8f:09:45:50:
         89:20:11:6c:32:c0:d8:7e:ed:fe:8f:50:6d:bc:df:bd:09:f7:
         ab:af:60:2f:9a:b1:42:fe:06:7d:80:c2:46:6d:8a:9d:85:0a:
         07:72:ec:17:5b:4e:a1:20
-----BEGIN CERTIFICATE-----
MIIEzjCCAragAwIBAgIBDjANBgkqhkiG9w0BAQUFADBtMQswCQYDVQQGEwJHQjEW
MBQGA1UECAwNU3RhZmZvcmRzaGlyZTEWMBQGA1UEBwwNV29sdmVyaGFtcHRvbjEU
MBIGA1UECgwLSW50cmJpeiBMdGQxGDAWBgNVBAMMD0ludHJiaXogUm9vdCBDQTAe
Fw0xNDExMzAyMDEwMzNaFw0xNTExMzAyMDEwMzNaMGsxCzAJBgNVBAYTAkdCMRYw
FAYDVQQIDA1TdGFmZm9yZHNoaXJlMRQwEgYDVQQKDAtJbnRyYml6IEx0ZDERMA8G
A1UECwwIQmVyZ2Ftb3QxGzAZBgNVBAMMEmh1Yi5iZXJnYW1vdC5sb2NhbDCCASIw
DQYJKoZIhvcNAQEBBQADggEPADCCAQoCggEBALeBAS5QLNaEpdkv7wJC2yRSIqxz
w+cLybEvZ4QB8qZOAYXXEfctnFLR5nYLR8Xn+iW2k2kb/9/WYevp4tDya0fw8Trf
/c29powCnr4bvdKU+ZrVRgQ7V6NMtyTNLCDqpZ+hRzutEQt4sfa2cxbYBCrBQP7M
kRuYXH9a8O4lRKnxl/Jzgl1n0zjPxFeRycLZ6tass4MPktrqo6mj37clk5EHBnfS
Y0NuRCGLadDo6P1Xt0Ufubpg8LyjD1RzWaatACT+r6rd0t8JONIRoEmb1JUhx/dv
T7uB+cYjPf6zLMobvoJtdqsoJbOb1XP3vCXva7KPzFAQM0zLlhxfgzrqvZECAwEA
AaN7MHkwCQYDVR0TBAIwADAsBglghkgBhvhCAQ0EHxYdT3BlblNTTCBHZW5lcmF0
ZWQgQ2VydGlmaWNhdGUwHQYDVR0OBBYEFHDZs3p55+lWLGl6WKMEgriMTjK7MB8G
A1UdIwQYMBaAFKqzI7MLV8//dTOTx5+qmHhVBKaiMA0GCSqGSIb3DQEBBQUAA4IC
AQAou7nT3fD026/aMtHK6gD7yoEaBJHcmlC6R3AR0eciPtCrUVmFstt+aABHMI27
cCr4t5T+AQ/E7YRrIihbFTzzgGxRGw31aGR0fdKC4UfNziH0DXCDER6WjcP94I0D
VZxrkh8/BvdpPZFdsa3RloQ9xTJtklBxmymDQV+4AEb1KIzeyoNdFXhVKf65jigA
KQ05YIodFoZOR1Q8LTbAAguXxje/pFFN7fOa/EvxUfFqo2JVJvOphysKgzhlgDNI
OtClOV/V6FhMFnHuGu6K0PCCQj7xT4GeMjKpiloyOZ48x2b+GcnK0Y4UP4enc2LL
UebURXg4zI32b5NeZPEYjmS0DZNp1vInSGMch0bUvJSlZo+pH91fIluTaMC7Hqp5
E2845/bNGooUB3GlGXlaHb07g3a7w9JDR81RdN1YP87SaYkBNVYp7AV70BcM5mce
uIMVPbqXcVqAeebYSHnAlPDJcW7YexZnWLkqls6mSY8KroaGbPhfBOe5Z6o9OTcF
rpGQ5seoqoIBq7o6SRliO3vpSdp21xns3H18DdHqha/9gRMV1wS2gR5tXy4wufQ6
2O3sl9dpmC2NAYCHgK0rDGWDl+89GLnNJh06Wh34ADSG+Y8JRVCJIBFsMsDYfu3+
j1BtvN+9Cferr2AvmrFC/gZ9gMJGbYqdhQoHcuwXW06hIA==
-----END CERTIFICATE-----
